; Function Attrs: nounwind uwtable
define range(i32 0, 2) i32 @test_char_lt(ptr noundef %0, i32 noundef %1, ptr noundef %2, ptr noundef %3, i8 noundef signext %4, i8 noundef signext %5) local_unnamed_addr #0 {
  %7 = icmp slt i8 %4, %5
  br i1 %7, label %11, label %8

8:                                                ; preds = %6
  %9 = sext i8 %5 to i32
  %10 = sext i8 %4 to i32
  tail call void (ptr, ptr, i32, ptr, ptr, ptr, ptr, ptr, ...) @test_fail_message(ptr poison, ptr noundef %0, i32 noundef %1, ptr noundef nonnull @.str.21, ptr noundef %2, ptr noundef %3, ptr noundef nonnull @.str.15, ptr noundef nonnull @.str.22, i32 noundef %10, i32 noundef %9)
  br label %11

11:                                               ; preds = %6, %8
  %.0 = phi i32 [ 0, %8 ], [ 1, %6 ]
  ret i32 %.0
}